; Function Attrs: nounwind uwtable
define ptr @l_Lean_resolveLocalName___rarg___lambda__1(ptr noundef readonly captures(none) %0, ptr noundef %1, ptr noundef %2, ptr noundef %3, i8 noundef zeroext %4) local_unnamed_addr #1 {
  %6 = ptrtoint ptr %3 to i64
  %7 = and i64 %6, 1
  %.not = icmp eq i64 %7, 0
  br i1 %.not, label %8, label %lean_inc.exit

8:                                                ; preds = %5
  %.val.i = load i32, ptr %3, align 4, !tbaa !4
  %9 = icmp sgt i32 %.val.i, 0
  br i1 %9, label %10, label %12, !prof !11

10:                                               ; preds = %8
  %11 = add nuw i32 %.val.i, 1
  store i32 %11, ptr %3, align 4, !tbaa !4
  br label %lean_inc.exit

12:                                               ; preds = %8
  %.not.i25 = icmp eq i32 %.val.i, 0
  br i1 %.not.i25, label %lean_inc.exit, label %13

13:                                               ; preds = %12
  tail call void @lean_inc_ref_cold(ptr noundef nonnull %3) #6
  br label %lean_inc.exit

lean_inc.exit:                                    ; preds = %13, %12, %10, %5
  %14 = tail call ptr @l_Lean_MacroScopesView_review(ptr noundef %3) #6
  %15 = getelementptr inbounds nuw i8, ptr %0, i64 16
  %16 = load ptr, ptr %15, align 8, !tbaa !9
  %17 = tail call ptr @l_Lean_PersistentArray_findSomeRevM_x3f___at_Lean_resolveLocalName___spec__1(ptr noundef %1, ptr noundef %2, ptr noundef %3, i8 noundef zeroext %4, ptr noundef %14, ptr noundef %16)
  %18 = ptrtoint ptr %17 to i64
  %19 = and i64 %18, 1
  %.not.i26 = icmp eq i64 %19, 0
  br i1 %.not.i26, label %23, label %20

20:                                               ; preds = %lean_inc.exit
  %21 = lshr i64 %18, 1
  %22 = trunc i64 %21 to i32
  br label %lean_obj_tag.exit

23:                                               ; preds = %lean_inc.exit
  %24 = getelementptr i8, ptr %17, i64 4
  %.val.i27 = load i32, ptr %24, align 4
  %25 = lshr i32 %.val.i27, 24
  br label %lean_obj_tag.exit

lean_obj_tag.exit:                                ; preds = %20, %23
  %.0.i = phi i32 [ %22, %20 ], [ %25, %23 ]
  %26 = icmp eq i32 %.0.i, 0
  br i1 %26, label %27, label %50

27:                                               ; preds = %lean_obj_tag.exit
  %28 = icmp eq i8 %4, 0
  br i1 %28, label %29, label %40

29:                                               ; preds = %27
  %30 = tail call ptr @l_Lean_PersistentArray_findSomeRevM_x3f___at_Lean_resolveLocalName___spec__6(ptr noundef %14, ptr noundef %16)
  %31 = ptrtoint ptr %14 to i64
  %32 = and i64 %31, 1
  %.not30 = icmp eq i64 %32, 0
  br i1 %.not30, label %33, label %lean_dec.exit20

33:                                               ; preds = %29
  %34 = load i32, ptr %14, align 4, !tbaa !4
  %35 = icmp sgt i32 %34, 1
  br i1 %35, label %36, label %38, !prof !11

36:                                               ; preds = %33
  %37 = add nsw i32 %34, -1
  store i32 %37, ptr %14, align 4, !tbaa !4
  br label %lean_dec.exit20

38:                                               ; preds = %33
  %.not.i = icmp eq i32 %34, 0
  br i1 %.not.i, label %lean_dec.exit20, label %39

39:                                               ; preds = %38
  tail call void @lean_dec_ref_cold(ptr noundef nonnull %14) #6
  br label %lean_dec.exit20

40:                                               ; preds = %27
  %41 = ptrtoint ptr %14 to i64
  %42 = and i64 %41, 1
  %.not29 = icmp eq i64 %42, 0
  br i1 %.not29, label %43, label %lean_dec.exit20

43:                                               ; preds = %40
  %44 = load i32, ptr %14, align 4, !tbaa !4
  %45 = icmp sgt i32 %44, 1
  br i1 %45, label %46, label %48, !prof !11

46:                                               ; preds = %43
  %47 = add nsw i32 %44, -1
  store i32 %47, ptr %14, align 4, !tbaa !4
  br label %lean_dec.exit20

48:                                               ; preds = %43
  %.not.i21 = icmp eq i32 %44, 0
  br i1 %.not.i21, label %lean_dec.exit20, label %49

49:                                               ; preds = %48
  tail call void @lean_dec_ref_cold(ptr noundef nonnull %14) #6
  br label %lean_dec.exit20

50:                                               ; preds = %lean_obj_tag.exit
  %51 = ptrtoint ptr %14 to i64
  %52 = and i64 %51, 1
  %.not28 = icmp eq i64 %52, 0
  br i1 %.not28, label %53, label %lean_dec.exit20

53:                                               ; preds = %50
  %54 = load i32, ptr %14, align 4, !tbaa !4
  %55 = icmp sgt i32 %54, 1
  br i1 %55, label %56, label %58, !prof !11

56:                                               ; preds = %53
  %57 = add nsw i32 %54, -1
  store i32 %57, ptr %14, align 4, !tbaa !4
  br label %lean_dec.exit20

58:                                               ; preds = %53
  %.not.i23 = icmp eq i32 %54, 0
  br i1 %.not.i23, label %lean_dec.exit20, label %59

59:                                               ; preds = %58
  tail call void @lean_dec_ref_cold(ptr noundef nonnull %14) #6
  br label %lean_dec.exit20

lean_dec.exit20:                                  ; preds = %50, %56, %58, %59, %40, %46, %48, %49, %29, %36, %38, %39
  %.0 = phi ptr [ %30, %39 ], [ %30, %38 ], [ %30, %36 ], [ %30, %29 ], [ %17, %49 ], [ %17, %48 ], [ %17, %46 ], [ %17, %40 ], [ %17, %59 ], [ %17, %58 ], [ %17, %56 ], [ %17, %50 ]
  ret ptr %.0
}